target datalayout = "e-m:e-p270:32:32-p271:32:32-p272:64:64-i64:64-i128:128-f80:128-n8:16:32:64-S128"
target triple = "x86_64-pc-linux-gnu"

%class.ZStatRelocation = type { %class.ZRelocationSetSelectorStats, i64, i64, i64, i64, i64 }
%class.ZRelocationSetSelectorStats = type { [16 x %class.ZRelocationSetSelectorGroupStats], [16 x %class.ZRelocationSetSelectorGroupStats], [16 x %class.ZRelocationSetSelectorGroupStats], i64 }
%class.ZRelocationSetSelectorGroupStats = type { i64, i64, i64, i64, i64, i64 }

; Function Attrs: mustprogress nounwind uwtable
define linkonce_odr hidden void @_ZN27ZRelocationSetSelectorStatsC2Ev(ptr noundef nonnull align 8 dereferenceable(2312) %0) unnamed_addr #1 comdat align 2 {
  %2 = alloca ptr, align 8
  store ptr %0, ptr %2, align 8
  %3 = load ptr, ptr %2, align 8
  %4 = getelementptr inbounds %class.ZRelocationSetSelectorStats, ptr %3, i32 0, i32 0
  %5 = getelementptr inbounds [16 x %class.ZRelocationSetSelectorGroupStats], ptr %4, i32 0, i32 0
  %6 = getelementptr inbounds %class.ZRelocationSetSelectorGroupStats, ptr %5, i64 16
  br label %7

7:                                                ; preds = %7, %1
  %8 = phi ptr [ %5, %1 ], [ %9, %7 ]
  call void @_ZN32ZRelocationSetSelectorGroupStatsC1Ev(ptr noundef nonnull align 8 dereferenceable(48) %8)
  %9 = getelementptr inbounds %class.ZRelocationSetSelectorGroupStats, ptr %8, i64 1
  %10 = icmp eq ptr %9, %6
  br i1 %10, label %11, label %7

11:                                               ; preds = %7
  %12 = getelementptr inbounds %class.ZRelocationSetSelectorStats, ptr %3, i32 0, i32 1
  %13 = getelementptr inbounds [16 x %class.ZRelocationSetSelectorGroupStats], ptr %12, i32 0, i32 0
  %14 = getelementptr inbounds %class.ZRelocationSetSelectorGroupStats, ptr %13, i64 16
  br label %15

15:                                               ; preds = %15, %11
  %16 = phi ptr [ %13, %11 ], [ %17, %15 ]
  call void @_ZN32ZRelocationSetSelectorGroupStatsC1Ev(ptr noundef nonnull align 8 dereferenceable(48) %16)
  %17 = getelementptr inbounds %class.ZRelocationSetSelectorGroupStats, ptr %16, i64 1
  %18 = icmp eq ptr %17, %14
  br i1 %18, label %19, label %15

19:                                               ; preds = %15
  %20 = getelementptr inbounds %class.ZRelocationSetSelectorStats, ptr %3, i32 0, i32 2
  %21 = getelementptr inbounds [16 x %class.ZRelocationSetSelectorGroupStats], ptr %20, i32 0, i32 0
  %22 = getelementptr inbounds %class.ZRelocationSetSelectorGroupStats, ptr %21, i64 16
  br label %23

23:                                               ; preds = %23, %19
  %24 = phi ptr [ %21, %19 ], [ %25, %23 ]
  call void @_ZN32ZRelocationSetSelectorGroupStatsC1Ev(ptr noundef nonnull align 8 dereferenceable(48) %24)
  %25 = getelementptr inbounds %class.ZRelocationSetSelectorGroupStats, ptr %24, i64 1
  %26 = icmp eq ptr %25, %22
  br i1 %26, label %27, label %23

27:                                               ; preds = %23
  ret void
}

; Function Attrs: mustprogress nounwind uwtable
define hidden void @_ZN15ZStatRelocationC2Ev(ptr noundef nonnull align 8 dereferenceable(2352) %0) unnamed_addr #1 align 2 {
  %2 = alloca ptr, align 8
  store ptr %0, ptr %2, align 8
  %3 = load ptr, ptr %2, align 8
  %4 = getelementptr inbounds %class.ZStatRelocation, ptr %3, i32 0, i32 0
  call void @llvm.memset.p0.i64(ptr align 8 %4, i8 0, i64 2312, i1 false)
  call void @_ZN27ZRelocationSetSelectorStatsC2Ev(ptr noundef nonnull align 8 dereferenceable(2312) %4)
  %5 = getelementptr inbounds %class.ZStatRelocation, ptr %3, i32 0, i32 1
  store i64 0, ptr %5, align 8
  %6 = getelementptr inbounds %class.ZStatRelocation, ptr %3, i32 0, i32 2
  store i64 0, ptr %6, align 8
  %7 = getelementptr inbounds %class.ZStatRelocation, ptr %3, i32 0, i32 3
  store i64 0, ptr %7, align 8
  %8 = getelementptr inbounds %class.ZStatRelocation, ptr %3, i32 0, i32 4
  store i64 0, ptr %8, align 8
  %9 = getelementptr inbounds %class.ZStatRelocation, ptr %3, i32 0, i32 5
  store i64 0, ptr %9, align 8
  ret void
}