; Function Attrs: mustprogress nounwind uwtable
define hidden void @_ZN15ZStatRelocationC2Ev(ptr noundef nonnull align 8 dereferenceable(2352) %0) unnamed_addr #0 align 2 {
  tail call void @llvm.memset.p0.i64(ptr noundef nonnull align 8 dereferenceable(2312) %0, i8 0, i64 2312, i1 false)
  br label %2

2:                                                ; preds = %2, %1
  %.idx.i = phi i64 [ 0, %1 ], [ %.add.i, %2 ]
  %.ptr.i = getelementptr inbounds i8, ptr %0, i64 %.idx.i
  tail call void @_ZN32ZRelocationSetSelectorGroupStatsC1Ev(ptr noundef nonnull align 8 dereferenceable(48) %.ptr.i) #20
  %.add.i = add nuw nsw i64 %.idx.i, 48
  %3 = icmp eq i64 %.add.i, 768
  br i1 %3, label %.preheader12.i, label %2

.preheader12.i:                                   ; preds = %2, %.preheader12.i
  %.idx2.i = phi i64 [ %.add3.i, %.preheader12.i ], [ 768, %2 ]
  %.ptr4.i = getelementptr inbounds i8, ptr %0, i64 %.idx2.i
  tail call void @_ZN32ZRelocationSetSelectorGroupStatsC1Ev(ptr noundef nonnull align 8 dereferenceable(48) %.ptr4.i) #20
  %.add3.i = add nuw nsw i64 %.idx2.i, 48
  %4 = icmp eq i64 %.add3.i, 1536
  br i1 %4, label %.preheader.i, label %.preheader12.i

.preheader.i:                                     ; preds = %.preheader12.i, %.preheader.i
  %.idx7.i = phi i64 [ %.add8.i, %.preheader.i ], [ 1536, %.preheader12.i ]
  %.ptr9.i = getelementptr inbounds i8, ptr %0, i64 %.idx7.i
  tail call void @_ZN32ZRelocationSetSelectorGroupStatsC1Ev(ptr noundef nonnull align 8 dereferenceable(48) %.ptr9.i) #20
  %.add8.i = add nuw nsw i64 %.idx7.i, 48
  %5 = icmp eq i64 %.add8.i, 2304
  br i1 %5, label %_ZN27ZRelocationSetSelectorStatsC2Ev.exit, label %.preheader.i

_ZN27ZRelocationSetSelectorStatsC2Ev.exit:        ; preds = %.preheader.i
  %6 = getelementptr inbounds i8, ptr %0, i64 2312
  tail call void @llvm.memset.p0.i64(ptr noundef nonnull align 8 dereferenceable(40) %6, i8 0, i64 40, i1 false)
  ret void
}